; Function Attrs: nounwind uwtable
define dso_local range(i64 0, 7) i64 @array_ndims(ptr noundef captures(none) %0) local_unnamed_addr #0 {
  %2 = getelementptr inbounds nuw i8, ptr %0, i64 32
  %3 = load i64, ptr %2, align 8
  %4 = tail call ptr @DatumGetAnyArrayP(i64 noundef %3) #18
  %5 = load i32, ptr %4, align 4
  %6 = icmp eq i32 %5, -1
  %.in.v = select i1 %6, i64 52, i64 4
  %.in = getelementptr inbounds nuw i8, ptr %4, i64 %.in.v
  %7 = load i32, ptr %.in, align 4
  %8 = add i32 %7, -7
  %or.cond = icmp ult i32 %8, -6
  br i1 %or.cond, label %9, label %11

9:                                                ; preds = %1
  %10 = getelementptr inbounds nuw i8, ptr %0, i64 28
  store i8 1, ptr %10, align 4
  br label %13

11:                                               ; preds = %1
  %12 = zext nneg i32 %7 to i64
  br label %13

13:                                               ; preds = %11, %9
  %.0 = phi i64 [ 0, %9 ], [ %12, %11 ]
  ret i64 %.0
}